; ModuleID = '19/1.c'
source_filename = "19/1.c"
target datalayout = "e-m:e-p270:32:32-p271:32:32-p272:64:64-i64:64-f80:128-n8:16:32:64-S128"
target triple = "x86_64-pc-linux-gnu"

@.str = private unnamed_addr constant [3 x i8] c"%s\00", align 1
@.str.1 = private unnamed_addr constant [3 x i8] c"%c\00", align 1

; Function Attrs: noinline nounwind uwtable
define dso_local i32 @main() #0 {
  %1 = alloca i32, align 4
  %2 = alloca [100 x i8], align 16
  %3 = alloca [100 x i8], align 16
  %4 = alloca [100 x i8], align 16
  %5 = alloca i8*, align 8
  store i32 0, i32* %1, align 4
  %6 = getelementptr inbounds [100 x i8], [100 x i8]* %2, i64 0, i64 0
  %7 = call i32 (i8*, ...) bitcast (i32 (...)* @gets to i32 (i8*, ...)*)(i8* %6)
  %8 = getelementptr inbounds [100 x i8], [100 x i8]* %3, i64 0, i64 0
  %9 = call i32 (i8*, ...) bitcast (i32 (...)* @gets to i32 (i8*, ...)*)(i8* %8)
  %10 = getelementptr inbounds [100 x i8], [100 x i8]* %4, i64 0, i64 0
  %11 = call i32 (i8*, ...) bitcast (i32 (...)* @gets to i32 (i8*, ...)*)(i8* %10)
  %12 = getelementptr inbounds [100 x i8], [100 x i8]* %2, i64 0, i64 0
  store i8* %12, i8** %5, align 8
  br label %13

13:                                               ; preds = %57, %0
  %14 = load i8*, i8** %5, align 8
  %15 = load i8, i8* %14, align 1
  %16 = sext i8 %15 to i32
  %17 = icmp ne i32 %16, 0
  br i1 %17, label %18, label %58

18:                                               ; preds = %13
  %19 = load i8*, i8** %5, align 8
  %20 = getelementptr inbounds [100 x i8], [100 x i8]* %3, i64 0, i64 0
  %21 = getelementptr inbounds [100 x i8], [100 x i8]* %3, i64 0, i64 0
  %22 = call i64 @strlen(i8* %21) #3
  %23 = call i32 @strncmp(i8* %19, i8* %20, i64 %22) #3
  %24 = icmp eq i32 %23, 0
  br i1 %24, label %25, label %50

25:                                               ; preds = %18
  %26 = load i8*, i8** %5, align 8
  %27 = getelementptr inbounds [100 x i8], [100 x i8]* %2, i64 0, i64 0
  %28 = icmp eq i8* %26, %27
  br i1 %28, label %35, label %29

29:                                               ; preds = %25
  %30 = load i8*, i8** %5, align 8
  %31 = getelementptr inbounds i8, i8* %30, i64 -1
  %32 = load i8, i8* %31, align 1
  %33 = sext i8 %32 to i32
  %34 = icmp eq i32 %33, 32
  br i1 %34, label %35, label %42

35:                                               ; preds = %29, %25
  %36 = getelementptr inbounds [100 x i8], [100 x i8]* %4, i64 0, i64 0
  %37 = call i32 (i8*, ...) @printf(i8* getelementptr inbounds ([3 x i8], [3 x i8]* @.str, i64 0, i64 0), i8* %36)
  %38 = getelementptr inbounds [100 x i8], [100 x i8]* %3, i64 0, i64 0
  %39 = call i64 @strlen(i8* %38) #3
  %40 = load i8*, i8** %5, align 8
  %41 = getelementptr inbounds i8, i8* %40, i64 %39
  store i8* %41, i8** %5, align 8
  br label %49

42:                                               ; preds = %29
  %43 = load i8*, i8** %5, align 8
  %44 = load i8, i8* %43, align 1
  %45 = sext i8 %44 to i32
  %46 = call i32 (i8*, ...) @printf(i8* getelementptr inbounds ([3 x i8], [3 x i8]* @.str.1, i64 0, i64 0), i32 %45)
  %47 = load i8*, i8** %5, align 8
  %48 = getelementptr inbounds i8, i8* %47, i32 1
  store i8* %48, i8** %5, align 8
  br label %49

49:                                               ; preds = %42, %35
  br label %57

50:                                               ; preds = %18
  %51 = load i8*, i8** %5, align 8
  %52 = load i8, i8* %51, align 1
  %53 = sext i8 %52 to i32
  %54 = call i32 (i8*, ...) @printf(i8* getelementptr inbounds ([3 x i8], [3 x i8]* @.str.1, i64 0, i64 0), i32 %53)
  %55 = load i8*, i8** %5, align 8
  %56 = getelementptr inbounds i8, i8* %55, i32 1
  store i8* %56, i8** %5, align 8
  br label %57

57:                                               ; preds = %50, %49
  br label %13

58:                                               ; preds = %13
  ret i32 0
}

declare dso_local i32 @gets(...) #1

; Function Attrs: nounwind readonly
declare dso_local i32 @strncmp(i8*, i8*, i64) #2

; Function Attrs: nounwind readonly
declare dso_local i64 @strlen(i8*) #2

declare dso_local i32 @printf(i8*, ...) #1


!llvm.module.flags = !{!0}
!llvm.ident = !{!1}

!0 = !{i32 1, !"wchar_size", i32 4}
!1 = !{!"clang version 10.0.0-4ubuntu1 "}
